Certificate:
    Data:
        Version: 1 (0x0)
        Serial Number: 1 (0x1)
    Signature Algorithm: sha256WithRSAEncryption
        Issuer: O=ST, L=WUXI, ST=JiangSu, C=CN
        Validity
            Not Before: Mar  1 02:46:47 2017 GMT
            Not After : Mar  1 02:46:47 2018 GMT
        Subject: C=CN, ST=JiangSu, O=ST, CN=colobus-bn.ddns.net
        Subject Public Key Info:
            Public Key Algorithm: rsaEncryption
                Public-Key: (1024 bit)
                Modulus:
                    00:c4:36:7f:a0:c3:18:5e:da:71:37:86:c3:5b:93:
                    40:f1:f4:fe:f7:ce:93:db:74:1a:41:6b:ca:57:0e:
                    b5:7d:1e:26:a5:d6:e3:b7:a7:2d:b8:6f:78:0c:ea:
                    71:90:dc:d4:fd:98:8e:5a:5d:fa:44:22:a0:83:39:
                    a9:db:6e:64:76:6f:01:13:4d:0b:59:ed:c8:bd:e2:
                    0d:75:34:c8:c6:c4:04:16:93:1c:e9:d7:0b:1a:c7:
                    72:13:86:34:dd:17:c4:10:29:1f:aa:be:d2:a8:3f:
                    41:4f:32:61:4d:cf:0f:22:11:8f:8e:ec:5a:67:78:
                    ee:0d:84:86:c0:3c:04:e5:9f
                Exponent: 65537 (0x10001)
    Signature Algorithm: sha256WithRSAEncryption
         a0:59:df:07:b4:b3:ff:33:75:24:46:5c:e3:9f:91:5b:2a:49:
         77:c3:b0:0f:61:cc:01:1b:b4:ed:90:1d:78:89:7d:4d:8c:35:
         b2:2d:18:ab:05:8e:ee:e8:9c:0a:78:10:fa:b3:12:8c:b5:0c:
         62:6c:87:92:5d:d2:1b:ee:2f:eb:58:fc:2d:e3:57:76:fc:55:
         2b:0e:0f:b4:f5:72:76:8a:9e:5a:87:80:d5:04:1b:16:88:8f:
         7c:43:60:7e:9a:e4:b3:3b:1b:19:8b:2a:ec:dd:eb:ac:f5:94:
         b7:ec:ce:7b:2a:a9:c4:c6:11:d1:30:48:6f:5a:33:cb:ba:a1:
         e1:f4
-----BEGIN CERTIFICATE-----
MIIB9DCCAV0CAQEwDQYJKoZIhvcNAQELBQAwOzELMAkGA1UEChMCU1QxDTALBgNV
BAcTBFdVWEkxEDAOBgNVBAgTB0ppYW5nU3UxCzAJBgNVBAYTAkNOMB4XDTE3MDMw
MTAyNDY0N1oXDTE4MDMwMTAyNDY0N1owSjELMAkGA1UEBhMCQ04xEDAOBgNVBAgT
B0ppYW5nU3UxCzAJBgNVBAoTAlNUMRwwGgYDVQQDExNjb2xvYnVzLWJuLmRkbnMu
bmV0MIGfMA0GCSqGSIb3DQEBAQUAA4GNADCBiQKBgQDENn+gwxhe2nE3hsNbk0Dx
9P73zpPbdBpBa8pXDrV9Hial1uO3py24b3gM6nGQ3NT9mI5aXfpEIqCDOanbbmR2
bwETTQtZ7ci94g11NMjGxAQWkxzp1wsax3IThjTdF8QQKR+qvtKoP0FPMmFNzw8i
EY+O7FpneO4NhIbAPATlnwIDAQABMA0GCSqGSIb3DQEBCwUAA4GBAKBZ3we0s/8z
dSRGXOOfkVsqSXfDsA9hzAEbtO2QHXiJfU2MNbItGKsFju7onAp4EPqzEoy1DGJs
h5Jd0hvuL+tY/C3jV3b8VSsOD7T1cnaKnlqHgNUEGxaIj3xDYH6a5LM7GxmLKuzd
66z1lLfsznsqqcTGEdEwSG9aM8u6oeH0
-----END CERTIFICATE-----
